target datalayout = "e-m:e-p270:32:32-p271:32:32-p272:64:64-i64:64-i128:128-f80:128-n8:16:32:64-S128"
target triple = "x86_64-pc-linux-gnu"

%struct.uv_loop_s = type { ptr, i32, [2 x ptr], %union.anon.1, ptr, i32, i64, i32, [2 x ptr], [2 x ptr], ptr, i32, i32, [2 x ptr], %union.pthread_mutex_t, %struct.uv_async_s, %union.pthread_rwlock_t, ptr, [2 x ptr], [2 x ptr], [2 x ptr], [2 x ptr], [2 x ptr], ptr, %struct.uv__io_s, i32, %struct.anon, i64, i64, [2 x i32], %struct.uv__io_s, %struct.uv_signal_s, i32, %struct.uv__io_s, ptr, i32 }
%union.anon.1 = type { ptr }
%union.pthread_mutex_t = type { %struct.__pthread_mutex_s }
%struct.__pthread_mutex_s = type { i32, i32, i32, i32, i32, i16, i16, %struct.__pthread_internal_list }
%struct.__pthread_internal_list = type { ptr, ptr }
%struct.uv_async_s = type { ptr, ptr, i32, ptr, [2 x ptr], %union.anon.2, ptr, i32, ptr, [2 x ptr], i32 }
%union.anon.2 = type { [4 x ptr] }
%union.pthread_rwlock_t = type { %struct.__pthread_rwlock_arch_t }
%struct.__pthread_rwlock_arch_t = type { i32, i32, i32, i32, i32, i32, i32, i32, i8, [7 x i8], i64, i32 }
%struct.anon = type { ptr, i32 }
%struct.uv_signal_s = type { ptr, ptr, i32, ptr, [2 x ptr], %union.anon.3, ptr, i32, ptr, i32, %struct.anon.4, i32, i32 }
%union.anon.3 = type { [4 x ptr] }
%struct.anon.4 = type { ptr, ptr, ptr, i32 }
%struct.uv__io_s = type { ptr, [2 x ptr], [2 x ptr], i32, i32, i32 }
%struct.uv_stream_s = type { ptr, ptr, i32, ptr, [2 x ptr], %union.anon, ptr, i32, i64, ptr, ptr, ptr, ptr, %struct.uv__io_s, [2 x ptr], [2 x ptr], ptr, i32, i32, ptr }
%union.anon = type { [4 x ptr] }
%struct.uv_shutdown_s = type { ptr, i32, [6 x ptr], ptr, ptr }

; Function Attrs: nounwind uwtable
define dso_local i32 @uv_shutdown(ptr noundef %0, ptr noundef %1, ptr noundef %2) #0 {
  %4 = alloca i32, align 4
  %5 = alloca ptr, align 8
  %6 = alloca ptr, align 8
  %7 = alloca ptr, align 8
  store ptr %0, ptr %5, align 8
  store ptr %1, ptr %6, align 8
  store ptr %2, ptr %7, align 8
  %8 = load ptr, ptr %6, align 8
  %9 = getelementptr inbounds %struct.uv_stream_s, ptr %8, i32 0, i32 7
  %10 = load i32, ptr %9, align 8
  %11 = and i32 %10, 32768
  %12 = icmp ne i32 %11, 0
  br i1 %12, label %13, label %31

13:                                               ; preds = %3
  %14 = load ptr, ptr %6, align 8
  %15 = getelementptr inbounds %struct.uv_stream_s, ptr %14, i32 0, i32 7
  %16 = load i32, ptr %15, align 8
  %17 = and i32 %16, 512
  %18 = icmp ne i32 %17, 0
  br i1 %18, label %31, label %19

19:                                               ; preds = %13
  %20 = load ptr, ptr %6, align 8
  %21 = getelementptr inbounds %struct.uv_stream_s, ptr %20, i32 0, i32 7
  %22 = load i32, ptr %21, align 8
  %23 = and i32 %22, 256
  %24 = icmp ne i32 %23, 0
  br i1 %24, label %31, label %25

25:                                               ; preds = %19
  %26 = load ptr, ptr %6, align 8
  %27 = getelementptr inbounds %struct.uv_stream_s, ptr %26, i32 0, i32 7
  %28 = load i32, ptr %27, align 8
  %29 = and i32 %28, 3
  %30 = icmp ne i32 %29, 0
  br i1 %30, label %31, label %32

31:                                               ; preds = %25, %19, %13, %3
  store i32 -107, ptr %4, align 4
  br label %78

32:                                               ; preds = %25
  br label %33

33:                                               ; preds = %32
  br label %34

34:                                               ; preds = %33
  %35 = load ptr, ptr %5, align 8
  %36 = getelementptr inbounds %struct.uv_shutdown_s, ptr %35, i32 0, i32 1
  store i32 4, ptr %36, align 8
  br label %37

37:                                               ; preds = %34
  br label %38

38:                                               ; preds = %37
  %39 = load ptr, ptr %6, align 8
  %40 = getelementptr inbounds %struct.uv_stream_s, ptr %39, i32 0, i32 1
  %41 = load ptr, ptr %40, align 8
  %42 = getelementptr inbounds %struct.uv_loop_s, ptr %41, i32 0, i32 3
  %43 = load i32, ptr %42, align 8
  %44 = add i32 %43, 1
  store i32 %44, ptr %42, align 8
  br label %45

45:                                               ; preds = %38
  br label %46

46:                                               ; preds = %45
  %47 = load ptr, ptr %6, align 8
  %48 = load ptr, ptr %5, align 8
  %49 = getelementptr inbounds %struct.uv_shutdown_s, ptr %48, i32 0, i32 3
  store ptr %47, ptr %49, align 8
  %50 = load ptr, ptr %7, align 8
  %51 = load ptr, ptr %5, align 8
  %52 = getelementptr inbounds %struct.uv_shutdown_s, ptr %51, i32 0, i32 4
  store ptr %50, ptr %52, align 8
  %53 = load ptr, ptr %5, align 8
  %54 = load ptr, ptr %6, align 8
  %55 = getelementptr inbounds %struct.uv_stream_s, ptr %54, i32 0, i32 12
  store ptr %53, ptr %55, align 8
  %56 = load ptr, ptr %6, align 8
  %57 = getelementptr inbounds %struct.uv_stream_s, ptr %56, i32 0, i32 7
  %58 = load i32, ptr %57, align 8
  %59 = or i32 %58, 256
  store i32 %59, ptr %57, align 8
  %60 = load ptr, ptr %6, align 8
  %61 = getelementptr inbounds %struct.uv_stream_s, ptr %60, i32 0, i32 7
  %62 = load i32, ptr %61, align 8
  %63 = and i32 %62, -32769
  store i32 %63, ptr %61, align 8
  %64 = load ptr, ptr %6, align 8
  %65 = getelementptr inbounds %struct.uv_stream_s, ptr %64, i32 0, i32 14
  %66 = load ptr, ptr %6, align 8
  %67 = getelementptr inbounds %struct.uv_stream_s, ptr %66, i32 0, i32 14
  %68 = getelementptr inbounds [2 x ptr], ptr %67, i64 0, i64 0
  %69 = load ptr, ptr %68, align 8
  %70 = icmp eq ptr %65, %69
  br i1 %70, label %71, label %77

71:                                               ; preds = %46
  %72 = load ptr, ptr %6, align 8
  %73 = getelementptr inbounds %struct.uv_stream_s, ptr %72, i32 0, i32 1
  %74 = load ptr, ptr %73, align 8
  %75 = load ptr, ptr %6, align 8
  %76 = getelementptr inbounds %struct.uv_stream_s, ptr %75, i32 0, i32 13
  call void @uv__io_feed(ptr noundef %74, ptr noundef %76)
  br label %77

77:                                               ; preds = %71, %46
  store i32 0, ptr %4, align 4
  br label %78

78:                                               ; preds = %77, %31
  %79 = load i32, ptr %4, align 4
  ret i32 %79
}