; Function Attrs: nounwind uwtable
define dso_local range(i32 -107, 1) i32 @uv_shutdown(ptr noundef %0, ptr noundef %1, ptr noundef %2) local_unnamed_addr #0 {
  %4 = getelementptr inbounds nuw i8, ptr %1, i64 88
  %5 = load i32, ptr %4, align 8
  %6 = and i32 %5, 33539
  %or.cond22 = icmp eq i32 %6, 32768
  br i1 %or.cond22, label %7, label %26

7:                                                ; preds = %3
  %8 = getelementptr inbounds nuw i8, ptr %0, i64 8
  store i32 4, ptr %8, align 8
  %9 = getelementptr inbounds nuw i8, ptr %1, i64 8
  %10 = load ptr, ptr %9, align 8
  %11 = getelementptr inbounds nuw i8, ptr %10, i64 32
  %12 = load i32, ptr %11, align 8
  %13 = add i32 %12, 1
  store i32 %13, ptr %11, align 8
  %14 = getelementptr inbounds nuw i8, ptr %0, i64 64
  store ptr %1, ptr %14, align 8
  %15 = getelementptr inbounds nuw i8, ptr %0, i64 72
  store ptr %2, ptr %15, align 8
  %16 = getelementptr inbounds nuw i8, ptr %1, i64 128
  store ptr %0, ptr %16, align 8
  %17 = load i32, ptr %4, align 8
  %18 = and i32 %17, -33025
  %19 = or disjoint i32 %18, 256
  store i32 %19, ptr %4, align 8
  %20 = getelementptr inbounds nuw i8, ptr %1, i64 192
  %21 = load ptr, ptr %20, align 8
  %22 = icmp eq ptr %20, %21
  br i1 %22, label %23, label %26

23:                                               ; preds = %7
  %24 = load ptr, ptr %9, align 8
  %25 = getelementptr inbounds nuw i8, ptr %1, i64 136
  tail call void @uv__io_feed(ptr noundef %24, ptr noundef nonnull %25) #12
  br label %26

26:                                               ; preds = %7, %23, %3
  %.0 = phi i32 [ -107, %3 ], [ 0, %23 ], [ 0, %7 ]
  ret i32 %.0
}